target datalayout = "e-m:e-p270:32:32-p271:32:32-p272:64:64-i64:64-i128:128-f80:128-n8:16:32:64-S128"
target triple = "x86_64-pc-linux-gnu"

%struct.e_in6_addr = type { [16 x i8] }

@.str.19 = private unnamed_addr constant [40 x i8] c"Short IPv6 interface address (%d vs 16)\00", align 1

; Function Attrs: null_pointer_is_valid sspstrong uwtable
define hidden void @isis_dissect_ipv6_int_clv(ptr noundef %0, ptr noundef %1, ptr noundef %2, ptr noundef %3, i32 noundef %4, i32 noundef %5, i32 noundef %6) #0 {
  %8 = alloca ptr, align 8
  %9 = alloca ptr, align 8
  %10 = alloca ptr, align 8
  %11 = alloca ptr, align 8
  %12 = alloca i32, align 4
  %13 = alloca i32, align 4
  %14 = alloca i32, align 4
  %15 = alloca %struct.e_in6_addr, align 1
  %16 = alloca i32, align 4
  store ptr %0, ptr %8, align 8
  store ptr %1, ptr %9, align 8
  store ptr %2, ptr %10, align 8
  store ptr %3, ptr %11, align 8
  store i32 %4, ptr %12, align 4
  store i32 %5, ptr %13, align 4
  store i32 %6, ptr %14, align 4
  call void @llvm.lifetime.start.p0(i64 16, ptr %15) #3
  %17 = load i32, ptr %13, align 4
  %18 = icmp sle i32 %17, 0
  br i1 %18, label %19, label %20

19:                                               ; preds = %7
  store i32 1, ptr %16, align 4
  br label %52

20:                                               ; preds = %7
  br label %21

21:                                               ; preds = %46, %20
  %22 = load i32, ptr %13, align 4
  %23 = icmp sgt i32 %22, 0
  br i1 %23, label %24, label %51

24:                                               ; preds = %21
  %25 = load i32, ptr %13, align 4
  %26 = icmp slt i32 %25, 16
  br i1 %26, label %27, label %35

27:                                               ; preds = %24
  %28 = load ptr, ptr %8, align 8
  %29 = load ptr, ptr %9, align 8
  %30 = load ptr, ptr %11, align 8
  %31 = load ptr, ptr %10, align 8
  %32 = load i32, ptr %12, align 4
  %33 = load i32, ptr %13, align 4
  %34 = call ptr (ptr, ptr, ptr, ptr, i32, i32, ptr, ...) @proto_tree_add_expert_format(ptr noundef %28, ptr noundef %29, ptr noundef %30, ptr noundef %31, i32 noundef %32, i32 noundef -1, ptr noundef @.str.19, i32 noundef %33)
  store i32 1, ptr %16, align 4
  br label %52

35:                                               ; preds = %24
  %36 = load ptr, ptr %10, align 8
  %37 = load i32, ptr %12, align 4
  call void @tvb_get_ipv6(ptr noundef %36, i32 noundef %37, ptr noundef %15)
  %38 = load ptr, ptr %8, align 8
  %39 = icmp ne ptr %38, null
  br i1 %39, label %40, label %46

40:                                               ; preds = %35
  %41 = load ptr, ptr %8, align 8
  %42 = load i32, ptr %14, align 4
  %43 = load ptr, ptr %10, align 8
  %44 = load i32, ptr %12, align 4
  %45 = call ptr @proto_tree_add_ipv6(ptr noundef %41, i32 noundef %42, ptr noundef %43, i32 noundef %44, i32 noundef 16, ptr noundef %15)
  br label %46

46:                                               ; preds = %40, %35
  %47 = load i32, ptr %12, align 4
  %48 = add i32 %47, 16
  store i32 %48, ptr %12, align 4
  %49 = load i32, ptr %13, align 4
  %50 = sub i32 %49, 16
  store i32 %50, ptr %13, align 4
  br label %21, !llvm.loop !12

51:                                               ; preds = %21
  store i32 0, ptr %16, align 4
  br label %52

52:                                               ; preds = %51, %27, %19
  call void @llvm.lifetime.end.p0(i64 16, ptr %15) #3
  %53 = load i32, ptr %16, align 4
  switch i32 %53, label %55 [
    i32 0, label %54
    i32 1, label %54
  ]

54:                                               ; preds = %52, %52
  ret void

55:                                               ; preds = %52
  unreachable
}