; Function Attrs: null_pointer_is_valid sspstrong uwtable
define hidden void @isis_dissect_ipv6_int_clv(ptr noundef %0, ptr noundef %1, ptr noundef %2, ptr noundef %3, i32 noundef %4, i32 noundef %5, i32 noundef %6) local_unnamed_addr #0 {
  %8 = alloca %struct.e_in6_addr, align 1
  call void @llvm.lifetime.start.p0(i64 16, ptr nonnull %8) #3
  %9 = icmp slt i32 %5, 1
  br i1 %9, label %.loopexit, label %.preheader

.preheader:                                       ; preds = %7
  %.not = icmp eq ptr %0, null
  br i1 %.not, label %.preheader.split.us, label %.preheader.split

.preheader.split.us:                              ; preds = %.preheader, %11
  %.023.us = phi i32 [ %12, %11 ], [ %4, %.preheader ]
  %.01722.us = phi i32 [ %13, %11 ], [ %5, %.preheader ]
  %10 = icmp samesign ult i32 %.01722.us, 16
  br i1 %10, label %.split.us, label %11

11:                                               ; preds = %.preheader.split.us
  call void @tvb_get_ipv6(ptr noundef %2, i32 noundef %.023.us, ptr noundef nonnull %8)
  %12 = add i32 %.023.us, 16
  %13 = add nsw i32 %.01722.us, -16
  %.not38 = icmp eq i32 %.01722.us, 16
  br i1 %.not38, label %.loopexit, label %.preheader.split.us, !llvm.loop !11

.preheader.split:                                 ; preds = %.preheader, %16
  %.023 = phi i32 [ %18, %16 ], [ %4, %.preheader ]
  %.01722 = phi i32 [ %19, %16 ], [ %5, %.preheader ]
  %14 = icmp samesign ult i32 %.01722, 16
  br i1 %14, label %.split.us, label %16

.split.us:                                        ; preds = %.preheader.split, %.preheader.split.us
  %.us-phi = phi i32 [ %.01722.us, %.preheader.split.us ], [ %.01722, %.preheader.split ]
  %.us-phi24 = phi i32 [ %.023.us, %.preheader.split.us ], [ %.023, %.preheader.split ]
  %15 = call ptr (ptr, ptr, ptr, ptr, i32, i32, ptr, ...) @proto_tree_add_expert_format(ptr noundef %0, ptr noundef %1, ptr noundef %3, ptr noundef %2, i32 noundef %.us-phi24, i32 noundef -1, ptr noundef nonnull @.str.19, i32 noundef %.us-phi)
  br label %.loopexit

16:                                               ; preds = %.preheader.split
  call void @tvb_get_ipv6(ptr noundef %2, i32 noundef %.023, ptr noundef nonnull %8)
  %17 = call ptr @proto_tree_add_ipv6(ptr noundef nonnull %0, i32 noundef %6, ptr noundef %2, i32 noundef %.023, i32 noundef 16, ptr noundef nonnull %8)
  %18 = add i32 %.023, 16
  %19 = add nsw i32 %.01722, -16
  %.not37 = icmp eq i32 %.01722, 16
  br i1 %.not37, label %.loopexit, label %.preheader.split, !llvm.loop !11

.loopexit:                                        ; preds = %16, %11, %7, %.split.us
  call void @llvm.lifetime.end.p0(i64 16, ptr nonnull %8) #3
  ret void
}